; Function Attrs: mustprogress nofree norecurse nounwind willreturn memory(argmem: readwrite) uwtable
define internal noundef ptr @_ZZN9grpc_core20ChannelArgTypeTraitsINS_12_GLOBAL__N_111XdsResolver17XdsConfigSelectorEvE6VTableEvENUlPvE_8__invokeES5_(ptr noundef returned %p) #22 align 2 personality ptr @__gxx_personality_v0 {
entry:
  %cmp.not.i = icmp eq ptr %p, null
  br i1 %cmp.not.i, label %_ZZN9grpc_core20ChannelArgTypeTraitsINS_12_GLOBAL__N_111XdsResolver17XdsConfigSelectorEvE6VTableEvENKUlPvE_clES5_.exit, label %_ZN9grpc_core13RefCountedPtrINS_14ConfigSelectorEED2Ev.exit.i

_ZN9grpc_core13RefCountedPtrINS_14ConfigSelectorEED2Ev.exit.i: ; preds = %entry
  %refs_.i.i.i = getelementptr inbounds i8, ptr %p, i64 8
  %0 = atomicrmw add ptr %refs_.i.i.i, i64 1 monotonic, align 8, !noalias !321
  br label %_ZZN9grpc_core20ChannelArgTypeTraitsINS_12_GLOBAL__N_111XdsResolver17XdsConfigSelectorEvE6VTableEvENKUlPvE_clES5_.exit

_ZZN9grpc_core20ChannelArgTypeTraitsINS_12_GLOBAL__N_111XdsResolver17XdsConfigSelectorEvE6VTableEvENKUlPvE_clES5_.exit: ; preds = %entry, %_ZN9grpc_core13RefCountedPtrINS_14ConfigSelectorEED2Ev.exit.i
  ret ptr %p
}